; Function Attrs: nounwind sspstrong uwtable
define internal i64 @nurat_truncate(i64 noundef %0) #0 {
  %2 = inttoptr i64 %0 to ptr
  %3 = getelementptr inbounds nuw i8, ptr %2, i64 16
  %4 = load i64, ptr %3, align 8, !tbaa !19
  %5 = and i64 %4, 1
  %.not.i = icmp eq i64 %5, 0
  br i1 %.not.i, label %INT_NEGATIVE_P.exit, label %6

6:                                                ; preds = %1
  %7 = icmp slt i64 %4, 0
  br i1 %7, label %11, label %17

INT_NEGATIVE_P.exit:                              ; preds = %1
  %8 = inttoptr i64 %4 to ptr
  %9 = load i64, ptr %8, align 8, !tbaa !7
  %10 = and i64 %9, 8192
  %.not.i.i = icmp eq i64 %10, 0
  br i1 %.not.i.i, label %11, label %17

11:                                               ; preds = %6, %INT_NEGATIVE_P.exit
  %12 = tail call i64 @rb_int_uminus(i64 noundef %4) #17
  %13 = getelementptr inbounds nuw i8, ptr %2, i64 24
  %14 = load i64, ptr %13, align 8, !tbaa !21
  %15 = tail call i64 @rb_int_idiv(i64 noundef %12, i64 noundef %14) #17
  %16 = tail call i64 @rb_int_uminus(i64 noundef %15) #17
  br label %21

17:                                               ; preds = %6, %INT_NEGATIVE_P.exit
  %18 = getelementptr inbounds nuw i8, ptr %2, i64 24
  %19 = load i64, ptr %18, align 8, !tbaa !21
  %20 = tail call i64 @rb_int_idiv(i64 noundef %4, i64 noundef %19) #17
  br label %21

21:                                               ; preds = %17, %11
  %.0 = phi i64 [ %16, %11 ], [ %20, %17 ]
  ret i64 %.0
}